target datalayout = "e-m:e-p270:32:32-p271:32:32-p272:64:64-i64:64-i128:128-f80:128-n8:16:32:64-S128"
target triple = "x86_64-pc-linux-gnu"

%struct.b2Vec2 = type { float, float }
%struct.b2Transform = type { %struct.b2Vec2, %struct.b2Rot }
%struct.b2Rot = type { float, float }
%struct.b2Polygon = type { [8 x %struct.b2Vec2], [8 x %struct.b2Vec2], %struct.b2Vec2, float, i32 }

; Function Attrs: inlinehint nounwind uwtable
define internal <2 x float> @b2RotateVector(<2 x float> %0, <2 x float> %1) #6 {
  %3 = alloca %struct.b2Vec2, align 4
  %4 = alloca %struct.b2Rot, align 4
  %5 = alloca %struct.b2Vec2, align 4
  store <2 x float> %0, ptr %4, align 4
  store <2 x float> %1, ptr %5, align 4
  %6 = getelementptr inbounds nuw %struct.b2Vec2, ptr %3, i32 0, i32 0
  %7 = getelementptr inbounds nuw %struct.b2Rot, ptr %4, i32 0, i32 0
  %8 = load float, ptr %7, align 4, !tbaa !43
  %9 = getelementptr inbounds nuw %struct.b2Vec2, ptr %5, i32 0, i32 0
  %10 = load float, ptr %9, align 4, !tbaa !30
  %11 = fmul float %8, %10
  %12 = getelementptr inbounds nuw %struct.b2Rot, ptr %4, i32 0, i32 1
  %13 = load float, ptr %12, align 4, !tbaa !44
  %14 = getelementptr inbounds nuw %struct.b2Vec2, ptr %5, i32 0, i32 1
  %15 = load float, ptr %14, align 4, !tbaa !31
  %16 = fmul float %13, %15
  %17 = fsub float %11, %16
  store float %17, ptr %6, align 4, !tbaa !30
  %18 = getelementptr inbounds nuw %struct.b2Vec2, ptr %3, i32 0, i32 1
  %19 = getelementptr inbounds nuw %struct.b2Rot, ptr %4, i32 0, i32 1
  %20 = load float, ptr %19, align 4, !tbaa !44
  %21 = getelementptr inbounds nuw %struct.b2Vec2, ptr %5, i32 0, i32 0
  %22 = load float, ptr %21, align 4, !tbaa !30
  %23 = fmul float %20, %22
  %24 = getelementptr inbounds nuw %struct.b2Rot, ptr %4, i32 0, i32 0
  %25 = load float, ptr %24, align 4, !tbaa !43
  %26 = getelementptr inbounds nuw %struct.b2Vec2, ptr %5, i32 0, i32 1
  %27 = load float, ptr %26, align 4, !tbaa !31
  %28 = fmul float %25, %27
  %29 = fadd float %23, %28
  store float %29, ptr %18, align 4, !tbaa !31
  %30 = load <2 x float>, ptr %3, align 4
  ret <2 x float> %30
}

; Function Attrs: inlinehint nounwind uwtable
define internal <2 x float> @b2TransformPoint(<2 x float> %0, <2 x float> %1, <2 x float> %2) #6 {
  %4 = alloca %struct.b2Vec2, align 4
  %5 = alloca %struct.b2Transform, align 4
  %6 = alloca %struct.b2Vec2, align 4
  %7 = alloca float, align 4
  %8 = alloca float, align 4
  %9 = getelementptr inbounds nuw { <2 x float>, <2 x float> }, ptr %5, i32 0, i32 0
  store <2 x float> %0, ptr %9, align 4
  %10 = getelementptr inbounds nuw { <2 x float>, <2 x float> }, ptr %5, i32 0, i32 1
  store <2 x float> %1, ptr %10, align 4
  store <2 x float> %2, ptr %6, align 4
  call void @llvm.lifetime.start.p0(i64 4, ptr %7) #9
  %11 = getelementptr inbounds nuw %struct.b2Transform, ptr %5, i32 0, i32 1
  %12 = getelementptr inbounds nuw %struct.b2Rot, ptr %11, i32 0, i32 0
  %13 = load float, ptr %12, align 4, !tbaa !37
  %14 = getelementptr inbounds nuw %struct.b2Vec2, ptr %6, i32 0, i32 0
  %15 = load float, ptr %14, align 4, !tbaa !30
  %16 = fmul float %13, %15
  %17 = getelementptr inbounds nuw %struct.b2Transform, ptr %5, i32 0, i32 1
  %18 = getelementptr inbounds nuw %struct.b2Rot, ptr %17, i32 0, i32 1
  %19 = load float, ptr %18, align 4, !tbaa !40
  %20 = getelementptr inbounds nuw %struct.b2Vec2, ptr %6, i32 0, i32 1
  %21 = load float, ptr %20, align 4, !tbaa !31
  %22 = fmul float %19, %21
  %23 = fsub float %16, %22
  %24 = getelementptr inbounds nuw %struct.b2Transform, ptr %5, i32 0, i32 0
  %25 = getelementptr inbounds nuw %struct.b2Vec2, ptr %24, i32 0, i32 0
  %26 = load float, ptr %25, align 4, !tbaa !41
  %27 = fadd float %23, %26
  store float %27, ptr %7, align 4, !tbaa !12
  call void @llvm.lifetime.start.p0(i64 4, ptr %8) #9
  %28 = getelementptr inbounds nuw %struct.b2Transform, ptr %5, i32 0, i32 1
  %29 = getelementptr inbounds nuw %struct.b2Rot, ptr %28, i32 0, i32 1
  %30 = load float, ptr %29, align 4, !tbaa !40
  %31 = getelementptr inbounds nuw %struct.b2Vec2, ptr %6, i32 0, i32 0
  %32 = load float, ptr %31, align 4, !tbaa !30
  %33 = fmul float %30, %32
  %34 = getelementptr inbounds nuw %struct.b2Transform, ptr %5, i32 0, i32 1
  %35 = getelementptr inbounds nuw %struct.b2Rot, ptr %34, i32 0, i32 0
  %36 = load float, ptr %35, align 4, !tbaa !37
  %37 = getelementptr inbounds nuw %struct.b2Vec2, ptr %6, i32 0, i32 1
  %38 = load float, ptr %37, align 4, !tbaa !31
  %39 = fmul float %36, %38
  %40 = fadd float %33, %39
  %41 = getelementptr inbounds nuw %struct.b2Transform, ptr %5, i32 0, i32 0
  %42 = getelementptr inbounds nuw %struct.b2Vec2, ptr %41, i32 0, i32 1
  %43 = load float, ptr %42, align 4, !tbaa !42
  %44 = fadd float %40, %43
  store float %44, ptr %8, align 4, !tbaa !12
  %45 = getelementptr inbounds nuw %struct.b2Vec2, ptr %4, i32 0, i32 0
  %46 = load float, ptr %7, align 4, !tbaa !12
  store float %46, ptr %45, align 4, !tbaa !30
  %47 = getelementptr inbounds nuw %struct.b2Vec2, ptr %4, i32 0, i32 1
  %48 = load float, ptr %8, align 4, !tbaa !12
  store float %48, ptr %47, align 4, !tbaa !31
  call void @llvm.lifetime.end.p0(i64 4, ptr %8) #9
  call void @llvm.lifetime.end.p0(i64 4, ptr %7) #9
  %49 = load <2 x float>, ptr %4, align 4
  ret <2 x float> %49
}

; Function Attrs: nounwind uwtable
define void @b2TransformPolygon(ptr dead_on_unwind noalias writable sret(%struct.b2Polygon) align 4 %0, <2 x float> %1, <2 x float> %2, ptr noundef %3) #0 {
  %5 = alloca %struct.b2Transform, align 4
  %6 = alloca ptr, align 8
  %7 = alloca i32, align 4
  %8 = alloca %struct.b2Vec2, align 4
  %9 = alloca %struct.b2Vec2, align 4
  %10 = alloca %struct.b2Vec2, align 4
  %11 = getelementptr inbounds nuw { <2 x float>, <2 x float> }, ptr %5, i32 0, i32 0
  store <2 x float> %1, ptr %11, align 4
  %12 = getelementptr inbounds nuw { <2 x float>, <2 x float> }, ptr %5, i32 0, i32 1
  store <2 x float> %2, ptr %12, align 4
  store ptr %3, ptr %6, align 8, !tbaa !45
  %13 = load ptr, ptr %6, align 8, !tbaa !45
  call void @llvm.memcpy.p0.p0.i64(ptr align 4 %0, ptr align 4 %13, i64 144, i1 false), !tbaa.struct !47
  call void @llvm.lifetime.start.p0(i64 4, ptr %7) #9
  store i32 0, ptr %7, align 4, !tbaa !25
  br label %14

14:                                               ; preds = %47, %4
  %15 = load i32, ptr %7, align 4, !tbaa !25
  %16 = getelementptr inbounds nuw %struct.b2Polygon, ptr %0, i32 0, i32 4
  %17 = load i32, ptr %16, align 4, !tbaa !22
  %18 = icmp slt i32 %15, %17
  br i1 %18, label %20, label %19

19:                                               ; preds = %14
  call void @llvm.lifetime.end.p0(i64 4, ptr %7) #9
  br label %50

20:                                               ; preds = %14
  %21 = getelementptr inbounds nuw %struct.b2Polygon, ptr %0, i32 0, i32 0
  %22 = load i32, ptr %7, align 4, !tbaa !25
  %23 = sext i32 %22 to i64
  %24 = getelementptr inbounds [8 x %struct.b2Vec2], ptr %21, i64 0, i64 %23
  call void @llvm.lifetime.start.p0(i64 8, ptr %8) #9
  %25 = getelementptr inbounds nuw %struct.b2Polygon, ptr %0, i32 0, i32 0
  %26 = load i32, ptr %7, align 4, !tbaa !25
  %27 = sext i32 %26 to i64
  %28 = getelementptr inbounds [8 x %struct.b2Vec2], ptr %25, i64 0, i64 %27
  %29 = getelementptr inbounds nuw { <2 x float>, <2 x float> }, ptr %5, i32 0, i32 0
  %30 = load <2 x float>, ptr %29, align 4
  %31 = getelementptr inbounds nuw { <2 x float>, <2 x float> }, ptr %5, i32 0, i32 1
  %32 = load <2 x float>, ptr %31, align 4
  %33 = load <2 x float>, ptr %28, align 4
  %34 = call <2 x float> @b2TransformPoint(<2 x float> %30, <2 x float> %32, <2 x float> %33)
  store <2 x float> %34, ptr %8, align 4
  call void @llvm.memcpy.p0.p0.i64(ptr align 4 %24, ptr align 4 %8, i64 8, i1 false), !tbaa.struct !26
  call void @llvm.lifetime.end.p0(i64 8, ptr %8) #9
  %35 = getelementptr inbounds nuw %struct.b2Polygon, ptr %0, i32 0, i32 1
  %36 = load i32, ptr %7, align 4, !tbaa !25
  %37 = sext i32 %36 to i64
  %38 = getelementptr inbounds [8 x %struct.b2Vec2], ptr %35, i64 0, i64 %37
  call void @llvm.lifetime.start.p0(i64 8, ptr %9) #9
  %39 = getelementptr inbounds nuw %struct.b2Transform, ptr %5, i32 0, i32 1
  %40 = getelementptr inbounds nuw %struct.b2Polygon, ptr %0, i32 0, i32 1
  %41 = load i32, ptr %7, align 4, !tbaa !25
  %42 = sext i32 %41 to i64
  %43 = getelementptr inbounds [8 x %struct.b2Vec2], ptr %40, i64 0, i64 %42
  %44 = load <2 x float>, ptr %39, align 4
  %45 = load <2 x float>, ptr %43, align 4
  %46 = call <2 x float> @b2RotateVector(<2 x float> %44, <2 x float> %45)
  store <2 x float> %46, ptr %9, align 4
  call void @llvm.memcpy.p0.p0.i64(ptr align 4 %38, ptr align 4 %9, i64 8, i1 false), !tbaa.struct !26
  call void @llvm.lifetime.end.p0(i64 8, ptr %9) #9
  br label %47

47:                                               ; preds = %20
  %48 = load i32, ptr %7, align 4, !tbaa !25
  %49 = add nsw i32 %48, 1
  store i32 %49, ptr %7, align 4, !tbaa !25
  br label %14, !llvm.loop !49

50:                                               ; preds = %19
  %51 = getelementptr inbounds nuw %struct.b2Polygon, ptr %0, i32 0, i32 2
  call void @llvm.lifetime.start.p0(i64 8, ptr %10) #9
  %52 = getelementptr inbounds nuw %struct.b2Polygon, ptr %0, i32 0, i32 2
  %53 = getelementptr inbounds nuw { <2 x float>, <2 x float> }, ptr %5, i32 0, i32 0
  %54 = load <2 x float>, ptr %53, align 4
  %55 = getelementptr inbounds nuw { <2 x float>, <2 x float> }, ptr %5, i32 0, i32 1
  %56 = load <2 x float>, ptr %55, align 4
  %57 = load <2 x float>, ptr %52, align 4
  %58 = call <2 x float> @b2TransformPoint(<2 x float> %54, <2 x float> %56, <2 x float> %57)
  store <2 x float> %58, ptr %10, align 4
  call void @llvm.memcpy.p0.p0.i64(ptr align 4 %51, ptr align 4 %10, i64 8, i1 false), !tbaa.struct !26
  call void @llvm.lifetime.end.p0(i64 8, ptr %10) #9
  ret void
}