; Function Attrs: nofree norecurse nosync nounwind memory(argmem: readwrite) uwtable
define void @b2TransformPolygon(ptr dead_on_unwind noalias writable sret(%struct.b2Polygon) align 4 captures(none) initializes((0, 144)) %0, <2 x float> %1, <2 x float> %2, ptr noundef readonly captures(none) %3) local_unnamed_addr #3 {
  tail call void @llvm.memcpy.p0.p0.i64(ptr noundef nonnull align 4 dereferenceable(144) %0, ptr noundef nonnull align 4 dereferenceable(144) %3, i64 144, i1 false), !tbaa.struct !38
  %5 = getelementptr inbounds nuw i8, ptr %0, i64 140
  %6 = load i32, ptr %5, align 4, !tbaa !18
  %7 = icmp sgt i32 %6, 0
  %.sroa.3.8.vec.extract.i12 = extractelement <2 x float> %2, i64 0
  %.sroa.3.12.vec.extract.i14 = extractelement <2 x float> %2, i64 1
  %.sroa.06.0.vec.extract.i16 = extractelement <2 x float> %1, i64 0
  %.sroa.06.4.vec.extract.i17 = extractelement <2 x float> %1, i64 1
  br i1 %7, label %.lr.ph, label %._crit_edge

.lr.ph:                                           ; preds = %4
  %8 = getelementptr inbounds nuw i8, ptr %0, i64 64
  br label %20

._crit_edge:                                      ; preds = %20, %4
  %9 = getelementptr inbounds nuw i8, ptr %0, i64 128
  %10 = load <2 x float>, ptr %9, align 4
  %.sroa.0.0.vec.extract.i = extractelement <2 x float> %10, i64 0
  %11 = fmul <2 x float> %2, %10
  %12 = extractelement <2 x float> %11, i64 0
  %.sroa.0.4.vec.extract.i = extractelement <2 x float> %10, i64 1
  %13 = fmul float %.sroa.3.12.vec.extract.i14, %.sroa.0.4.vec.extract.i
  %14 = fsub float %12, %13
  %15 = fadd float %.sroa.06.0.vec.extract.i16, %14
  %16 = fmul float %.sroa.3.12.vec.extract.i14, %.sroa.0.0.vec.extract.i
  %17 = fmul float %.sroa.3.8.vec.extract.i12, %.sroa.0.4.vec.extract.i
  %18 = fadd float %16, %17
  %19 = fadd float %.sroa.06.4.vec.extract.i17, %18
  %.sroa.011.0.vec.insert.i = insertelement <2 x float> poison, float %15, i64 0
  %.sroa.011.4.vec.insert.i = insertelement <2 x float> %.sroa.011.0.vec.insert.i, float %19, i64 1
  store <2 x float> %.sroa.011.4.vec.insert.i, ptr %9, align 4
  ret void

20:                                               ; preds = %.lr.ph, %20
  %indvars.iv = phi i64 [ 0, %.lr.ph ], [ %indvars.iv.next, %20 ]
  %21 = getelementptr inbounds nuw [8 x %struct.b2Vec2], ptr %0, i64 0, i64 %indvars.iv
  %22 = load <2 x float>, ptr %21, align 4
  %.sroa.0.0.vec.extract.i13 = extractelement <2 x float> %22, i64 0
  %23 = fmul <2 x float> %2, %22
  %24 = extractelement <2 x float> %23, i64 0
  %.sroa.0.4.vec.extract.i15 = extractelement <2 x float> %22, i64 1
  %25 = fmul float %.sroa.3.12.vec.extract.i14, %.sroa.0.4.vec.extract.i15
  %26 = fsub float %24, %25
  %27 = fadd float %.sroa.06.0.vec.extract.i16, %26
  %28 = fmul float %.sroa.3.12.vec.extract.i14, %.sroa.0.0.vec.extract.i13
  %29 = fmul float %.sroa.3.8.vec.extract.i12, %.sroa.0.4.vec.extract.i15
  %30 = fadd float %28, %29
  %31 = fadd float %.sroa.06.4.vec.extract.i17, %30
  %.sroa.011.0.vec.insert.i18 = insertelement <2 x float> poison, float %27, i64 0
  %.sroa.011.4.vec.insert.i19 = insertelement <2 x float> %.sroa.011.0.vec.insert.i18, float %31, i64 1
  store <2 x float> %.sroa.011.4.vec.insert.i19, ptr %21, align 4
  %32 = getelementptr inbounds nuw [8 x %struct.b2Vec2], ptr %8, i64 0, i64 %indvars.iv
  %33 = load <2 x float>, ptr %32, align 4
  %.sroa.0.0.vec.extract.i20 = extractelement <2 x float> %33, i64 0
  %34 = fmul <2 x float> %2, %33
  %35 = extractelement <2 x float> %34, i64 0
  %.sroa.0.4.vec.extract.i21 = extractelement <2 x float> %33, i64 1
  %36 = fmul float %.sroa.3.12.vec.extract.i14, %.sroa.0.4.vec.extract.i21
  %37 = fsub float %35, %36
  %.sroa.010.0.vec.insert.i = insertelement <2 x float> poison, float %37, i64 0
  %38 = fmul float %.sroa.3.12.vec.extract.i14, %.sroa.0.0.vec.extract.i20
  %39 = fmul float %.sroa.3.8.vec.extract.i12, %.sroa.0.4.vec.extract.i21
  %40 = fadd float %38, %39
  %.sroa.010.4.vec.insert.i = insertelement <2 x float> %.sroa.010.0.vec.insert.i, float %40, i64 1
  store <2 x float> %.sroa.010.4.vec.insert.i, ptr %32, align 4
  %indvars.iv.next = add nuw nsw i64 %indvars.iv, 1
  %41 = load i32, ptr %5, align 4, !tbaa !18
  %42 = sext i32 %41 to i64
  %43 = icmp slt i64 %indvars.iv.next, %42
  br i1 %43, label %20, label %._crit_edge, !llvm.loop !41
}